
AT24CXX.elf:     file format elf32-avr

Sections:
Idx Name          Size      VMA       LMA       File off  Algn
  0 .text         000003e4  00000000  00000000  00000054  2**1
                  CONTENTS, ALLOC, LOAD, READONLY, CODE
  1 .debug_aranges 00000020  00000000  00000000  00000438  2**0
                  CONTENTS, READONLY, DEBUGGING
  2 .debug_pubnames 000000f5  00000000  00000000  00000458  2**0
                  CONTENTS, READONLY, DEBUGGING
  3 .debug_info   000010bd  00000000  00000000  0000054d  2**0
                  CONTENTS, READONLY, DEBUGGING
  4 .debug_abbrev 000001d4  00000000  00000000  0000160a  2**0
                  CONTENTS, READONLY, DEBUGGING
  5 .debug_line   00000820  00000000  00000000  000017de  2**0
                  CONTENTS, READONLY, DEBUGGING
  6 .debug_frame  00000130  00000000  00000000  00002000  2**2
                  CONTENTS, READONLY, DEBUGGING
  7 .debug_str    000001b7  00000000  00000000  00002130  2**0
                  CONTENTS, READONLY, DEBUGGING
  8 .debug_loc    000004d0  00000000  00000000  000022e7  2**0
                  CONTENTS, READONLY, DEBUGGING
  9 .debug_ranges 00000168  00000000  00000000  000027b7  2**0
                  CONTENTS, READONLY, DEBUGGING

Disassembly of section .text:

00000000 <__vectors>:
   0:	0c 94 38 00 	jmp	0x70	; 0x70 <__ctors_end>
   4:	0c 94 42 00 	jmp	0x84	; 0x84 <__bad_interrupt>
   8:	0c 94 42 00 	jmp	0x84	; 0x84 <__bad_interrupt>
   c:	0c 94 42 00 	jmp	0x84	; 0x84 <__bad_interrupt>
  10:	0c 94 42 00 	jmp	0x84	; 0x84 <__bad_interrupt>
  14:	0c 94 42 00 	jmp	0x84	; 0x84 <__bad_interrupt>
  18:	0c 94 42 00 	jmp	0x84	; 0x84 <__bad_interrupt>
  1c:	0c 94 42 00 	jmp	0x84	; 0x84 <__bad_interrupt>
  20:	0c 94 42 00 	jmp	0x84	; 0x84 <__bad_interrupt>
  24:	0c 94 42 00 	jmp	0x84	; 0x84 <__bad_interrupt>
  28:	0c 94 42 00 	jmp	0x84	; 0x84 <__bad_interrupt>
  2c:	0c 94 42 00 	jmp	0x84	; 0x84 <__bad_interrupt>
  30:	0c 94 42 00 	jmp	0x84	; 0x84 <__bad_interrupt>
  34:	0c 94 42 00 	jmp	0x84	; 0x84 <__bad_interrupt>
  38:	0c 94 42 00 	jmp	0x84	; 0x84 <__bad_interrupt>
  3c:	0c 94 42 00 	jmp	0x84	; 0x84 <__bad_interrupt>
  40:	0c 94 42 00 	jmp	0x84	; 0x84 <__bad_interrupt>
  44:	0c 94 42 00 	jmp	0x84	; 0x84 <__bad_interrupt>
  48:	0c 94 42 00 	jmp	0x84	; 0x84 <__bad_interrupt>
  4c:	0c 94 42 00 	jmp	0x84	; 0x84 <__bad_interrupt>
  50:	0c 94 42 00 	jmp	0x84	; 0x84 <__bad_interrupt>
  54:	0c 94 42 00 	jmp	0x84	; 0x84 <__bad_interrupt>
  58:	0c 94 42 00 	jmp	0x84	; 0x84 <__bad_interrupt>
  5c:	0c 94 42 00 	jmp	0x84	; 0x84 <__bad_interrupt>
  60:	0c 94 42 00 	jmp	0x84	; 0x84 <__bad_interrupt>
  64:	0c 94 42 00 	jmp	0x84	; 0x84 <__bad_interrupt>
  68:	0c 94 42 00 	jmp	0x84	; 0x84 <__bad_interrupt>
  6c:	0c 94 42 00 	jmp	0x84	; 0x84 <__bad_interrupt>

00000070 <__ctors_end>:
  70:	11 24       	eor	r1, r1
  72:	1f be       	out	0x3f, r1	; 63
  74:	cf ef       	ldi	r28, 0xFF	; 255
  76:	d4 e0       	ldi	r29, 0x04	; 4
  78:	de bf       	out	0x3e, r29	; 62
  7a:	cd bf       	out	0x3d, r28	; 61
  7c:	0e 94 c7 01 	call	0x38e	; 0x38e <main>
  80:	0c 94 f0 01 	jmp	0x3e0	; 0x3e0 <_exit>

00000084 <__bad_interrupt>:
  84:	0c 94 00 00 	jmp	0	; 0x0 <__vectors>

00000088 <SDA_IN>:
  #warning "iic_sim interface undefined."
#endif

#define IIC_DELAY _delay_us(6)//asm("nop")

void SDA_IN()		{cbi(DDR_IIC,SDA_X);IIC_DELAY;}
  88:	8c 98       	cbi	0x11, 4	; 17
    can be achieved.
*/
void
_delay_loop_1(uint8_t __count)
{
	__asm__ volatile (
  8a:	8e e0       	ldi	r24, 0x0E	; 14
  8c:	8a 95       	dec	r24
  8e:	f1 f7       	brne	.-4      	; 0x8c <SDA_IN+0x4>
  90:	08 95       	ret

00000092 <SDA_OUT>:
void SDA_OUT()		{sbi(DDR_IIC,SDA_X);IIC_DELAY;}  
  92:	8c 9a       	sbi	0x11, 4	; 17
  94:	8e e0       	ldi	r24, 0x0E	; 14
  96:	8a 95       	dec	r24
  98:	f1 f7       	brne	.-4      	; 0x96 <SDA_OUT+0x4>
  9a:	08 95       	ret

0000009c <SDA_SET>:
void SDA_SET()		{sbi(PORT_IIC,SDA_X);IIC_DELAY;}
  9c:	94 9a       	sbi	0x12, 4	; 18
  9e:	8e e0       	ldi	r24, 0x0E	; 14
  a0:	8a 95       	dec	r24
  a2:	f1 f7       	brne	.-4      	; 0xa0 <SDA_SET+0x4>
  a4:	08 95       	ret

000000a6 <SDA_CLR>:
void SDA_CLR()		{cbi(PORT_IIC,SDA_X);IIC_DELAY;}
  a6:	94 98       	cbi	0x12, 4	; 18
  a8:	8e e0       	ldi	r24, 0x0E	; 14
  aa:	8a 95       	dec	r24
  ac:	f1 f7       	brne	.-4      	; 0xaa <SDA_CLR+0x4>
  ae:	08 95       	ret

000000b0 <SCL_IN>:
#define SDA_PIN		(gbi(PIN_IIC,SDA_X))

void SCL_IN()		{cbi(DDR_IIC,SCL_X);IIC_DELAY;}
  b0:	8d 98       	cbi	0x11, 5	; 17
  b2:	8e e0       	ldi	r24, 0x0E	; 14
  b4:	8a 95       	dec	r24
  b6:	f1 f7       	brne	.-4      	; 0xb4 <SCL_IN+0x4>
  b8:	08 95       	ret

000000ba <SCL_OUT>:
void SCL_OUT()		{sbi(DDR_IIC,SCL_X);IIC_DELAY;}  
  ba:	8d 9a       	sbi	0x11, 5	; 17
  bc:	8e e0       	ldi	r24, 0x0E	; 14
  be:	8a 95       	dec	r24
  c0:	f1 f7       	brne	.-4      	; 0xbe <SCL_OUT+0x4>
  c2:	08 95       	ret

000000c4 <SCL_SET>:
void SCL_SET()		{sbi(PORT_IIC,SCL_X);IIC_DELAY;}
  c4:	95 9a       	sbi	0x12, 5	; 18
  c6:	8e e0       	ldi	r24, 0x0E	; 14
  c8:	8a 95       	dec	r24
  ca:	f1 f7       	brne	.-4      	; 0xc8 <SCL_SET+0x4>
  cc:	08 95       	ret

000000ce <SCL_CLR>:
void SCL_CLR()		{cbi(PORT_IIC,SCL_X);IIC_DELAY;}
  ce:	95 98       	cbi	0x12, 5	; 18
  d0:	8e e0       	ldi	r24, 0x0E	; 14
  d2:	8a 95       	dec	r24
  d4:	f1 f7       	brne	.-4      	; 0xd2 <SCL_CLR+0x4>
  d6:	08 95       	ret

000000d8 <iicStart>:
void SDA_SET()		{sbi(PORT_IIC,SDA_X);IIC_DELAY;}
void SDA_CLR()		{cbi(PORT_IIC,SDA_X);IIC_DELAY;}
#define SDA_PIN		(gbi(PIN_IIC,SDA_X))

void SCL_IN()		{cbi(DDR_IIC,SCL_X);IIC_DELAY;}
void SCL_OUT()		{sbi(DDR_IIC,SCL_X);IIC_DELAY;}  
  d8:	8d 9a       	sbi	0x11, 5	; 17
  da:	8e e0       	ldi	r24, 0x0E	; 14
  dc:	98 2f       	mov	r25, r24
  de:	9a 95       	dec	r25
  e0:	f1 f7       	brne	.-4      	; 0xde <iicStart+0x6>
void SCL_SET()		{sbi(PORT_IIC,SCL_X);IIC_DELAY;}
void SCL_CLR()		{cbi(PORT_IIC,SCL_X);IIC_DELAY;}
  e2:	95 98       	cbi	0x12, 5	; 18
  e4:	98 2f       	mov	r25, r24
  e6:	9a 95       	dec	r25
  e8:	f1 f7       	brne	.-4      	; 0xe6 <iicStart+0xe>
#endif

#define IIC_DELAY _delay_us(6)//asm("nop")

void SDA_IN()		{cbi(DDR_IIC,SDA_X);IIC_DELAY;}
void SDA_OUT()		{sbi(DDR_IIC,SDA_X);IIC_DELAY;}  
  ea:	8c 9a       	sbi	0x11, 4	; 17
  ec:	98 2f       	mov	r25, r24
  ee:	9a 95       	dec	r25
  f0:	f1 f7       	brne	.-4      	; 0xee <iicStart+0x16>
void SDA_SET()		{sbi(PORT_IIC,SDA_X);IIC_DELAY;}
  f2:	94 9a       	sbi	0x12, 4	; 18
  f4:	98 2f       	mov	r25, r24
  f6:	9a 95       	dec	r25
  f8:	f1 f7       	brne	.-4      	; 0xf6 <iicStart+0x1e>
void SDA_CLR()		{cbi(PORT_IIC,SDA_X);IIC_DELAY;}
#define SDA_PIN		(gbi(PIN_IIC,SDA_X))

void SCL_IN()		{cbi(DDR_IIC,SCL_X);IIC_DELAY;}
void SCL_OUT()		{sbi(DDR_IIC,SCL_X);IIC_DELAY;}  
void SCL_SET()		{sbi(PORT_IIC,SCL_X);IIC_DELAY;}
  fa:	95 9a       	sbi	0x12, 5	; 18
  fc:	98 2f       	mov	r25, r24
  fe:	9a 95       	dec	r25
 100:	f1 f7       	brne	.-4      	; 0xfe <iicStart+0x26>
#define IIC_DELAY _delay_us(6)//asm("nop")

void SDA_IN()		{cbi(DDR_IIC,SDA_X);IIC_DELAY;}
void SDA_OUT()		{sbi(DDR_IIC,SDA_X);IIC_DELAY;}  
void SDA_SET()		{sbi(PORT_IIC,SDA_X);IIC_DELAY;}
void SDA_CLR()		{cbi(PORT_IIC,SDA_X);IIC_DELAY;}
 102:	94 98       	cbi	0x12, 4	; 18
 104:	98 2f       	mov	r25, r24
 106:	9a 95       	dec	r25
 108:	f1 f7       	brne	.-4      	; 0x106 <iicStart+0x2e>
#define SDA_PIN		(gbi(PIN_IIC,SDA_X))

void SCL_IN()		{cbi(DDR_IIC,SCL_X);IIC_DELAY;}
void SCL_OUT()		{sbi(DDR_IIC,SCL_X);IIC_DELAY;}  
void SCL_SET()		{sbi(PORT_IIC,SCL_X);IIC_DELAY;}
void SCL_CLR()		{cbi(PORT_IIC,SCL_X);IIC_DELAY;}
 10a:	95 98       	cbi	0x12, 5	; 18
 10c:	8a 95       	dec	r24
 10e:	f1 f7       	brne	.-4      	; 0x10c <iicStart+0x34>
	SDA_OUT();
	SDA_SET();
	SCL_SET();
	SDA_CLR();
	SCL_CLR();
}
 110:	08 95       	ret

00000112 <iicStop>:
void SDA_SET()		{sbi(PORT_IIC,SDA_X);IIC_DELAY;}
void SDA_CLR()		{cbi(PORT_IIC,SDA_X);IIC_DELAY;}
#define SDA_PIN		(gbi(PIN_IIC,SDA_X))

void SCL_IN()		{cbi(DDR_IIC,SCL_X);IIC_DELAY;}
void SCL_OUT()		{sbi(DDR_IIC,SCL_X);IIC_DELAY;}  
 112:	8d 9a       	sbi	0x11, 5	; 17
 114:	8e e0       	ldi	r24, 0x0E	; 14
 116:	98 2f       	mov	r25, r24
 118:	9a 95       	dec	r25
 11a:	f1 f7       	brne	.-4      	; 0x118 <iicStop+0x6>
void SCL_SET()		{sbi(PORT_IIC,SCL_X);IIC_DELAY;}
void SCL_CLR()		{cbi(PORT_IIC,SCL_X);IIC_DELAY;}
 11c:	95 98       	cbi	0x12, 5	; 18
 11e:	98 2f       	mov	r25, r24
 120:	9a 95       	dec	r25
 122:	f1 f7       	brne	.-4      	; 0x120 <iicStop+0xe>
#endif

#define IIC_DELAY _delay_us(6)//asm("nop")

void SDA_IN()		{cbi(DDR_IIC,SDA_X);IIC_DELAY;}
void SDA_OUT()		{sbi(DDR_IIC,SDA_X);IIC_DELAY;}  
 124:	8c 9a       	sbi	0x11, 4	; 17
 126:	98 2f       	mov	r25, r24
 128:	9a 95       	dec	r25
 12a:	f1 f7       	brne	.-4      	; 0x128 <iicStop+0x16>
void SDA_SET()		{sbi(PORT_IIC,SDA_X);IIC_DELAY;}
void SDA_CLR()		{cbi(PORT_IIC,SDA_X);IIC_DELAY;}
 12c:	94 98       	cbi	0x12, 4	; 18
 12e:	98 2f       	mov	r25, r24
 130:	9a 95       	dec	r25
 132:	f1 f7       	brne	.-4      	; 0x130 <iicStop+0x1e>
#define SDA_PIN		(gbi(PIN_IIC,SDA_X))

void SCL_IN()		{cbi(DDR_IIC,SCL_X);IIC_DELAY;}
void SCL_OUT()		{sbi(DDR_IIC,SCL_X);IIC_DELAY;}  
void SCL_SET()		{sbi(PORT_IIC,SCL_X);IIC_DELAY;}
 134:	95 9a       	sbi	0x12, 5	; 18
 136:	98 2f       	mov	r25, r24
 138:	9a 95       	dec	r25
 13a:	f1 f7       	brne	.-4      	; 0x138 <iicStop+0x26>

#define IIC_DELAY _delay_us(6)//asm("nop")

void SDA_IN()		{cbi(DDR_IIC,SDA_X);IIC_DELAY;}
void SDA_OUT()		{sbi(DDR_IIC,SDA_X);IIC_DELAY;}  
void SDA_SET()		{sbi(PORT_IIC,SDA_X);IIC_DELAY;}
 13c:	94 9a       	sbi	0x12, 4	; 18
 13e:	98 2f       	mov	r25, r24
 140:	9a 95       	dec	r25
 142:	f1 f7       	brne	.-4      	; 0x140 <iicStop+0x2e>
#define SDA_PIN		(gbi(PIN_IIC,SDA_X))

void SCL_IN()		{cbi(DDR_IIC,SCL_X);IIC_DELAY;}
void SCL_OUT()		{sbi(DDR_IIC,SCL_X);IIC_DELAY;}  
void SCL_SET()		{sbi(PORT_IIC,SCL_X);IIC_DELAY;}
void SCL_CLR()		{cbi(PORT_IIC,SCL_X);IIC_DELAY;}
 144:	95 98       	cbi	0x12, 5	; 18
 146:	8a 95       	dec	r24
 148:	f1 f7       	brne	.-4      	; 0x146 <iicStop+0x34>
	SDA_OUT();
	SDA_CLR();
	SCL_SET();
	SDA_SET();
	SCL_CLR();
}
 14a:	08 95       	ret

0000014c <iicSendChar>:
#endif

#define IIC_DELAY _delay_us(6)//asm("nop")

void SDA_IN()		{cbi(DDR_IIC,SDA_X);IIC_DELAY;}
void SDA_OUT()		{sbi(DDR_IIC,SDA_X);IIC_DELAY;}  
 14c:	8c 9a       	sbi	0x11, 4	; 17
 14e:	9e e0       	ldi	r25, 0x0E	; 14
 150:	9a 95       	dec	r25
 152:	f1 f7       	brne	.-4      	; 0x150 <iicSendChar+0x4>
 154:	20 e0       	ldi	r18, 0x00	; 0
{
	uint8_t I2C_n;
	SDA_OUT();
	for(I2C_n=0;I2C_n<=7;I2C_n++)
	{
		if(wrDAdr&0x80) {SDA_SET();}
 156:	4e e0       	ldi	r20, 0x0E	; 14
 158:	87 ff       	sbrs	r24, 7
 15a:	02 c0       	rjmp	.+4      	; 0x160 <iicSendChar+0x14>
void SDA_SET()		{sbi(PORT_IIC,SDA_X);IIC_DELAY;}
 15c:	94 9a       	sbi	0x12, 4	; 18
 15e:	01 c0       	rjmp	.+2      	; 0x162 <iicSendChar+0x16>
void SDA_CLR()		{cbi(PORT_IIC,SDA_X);IIC_DELAY;}
 160:	94 98       	cbi	0x12, 4	; 18
 162:	94 2f       	mov	r25, r20
 164:	9a 95       	dec	r25
 166:	f1 f7       	brne	.-4      	; 0x164 <iicSendChar+0x18>
#define SDA_PIN		(gbi(PIN_IIC,SDA_X))

void SCL_IN()		{cbi(DDR_IIC,SCL_X);IIC_DELAY;}
void SCL_OUT()		{sbi(DDR_IIC,SCL_X);IIC_DELAY;}  
void SCL_SET()		{sbi(PORT_IIC,SCL_X);IIC_DELAY;}
 168:	95 9a       	sbi	0x12, 5	; 18
 16a:	3e e0       	ldi	r19, 0x0E	; 14
 16c:	94 2f       	mov	r25, r20
 16e:	9a 95       	dec	r25
 170:	f1 f7       	brne	.-4      	; 0x16e <iicSendChar+0x22>
void SCL_CLR()		{cbi(PORT_IIC,SCL_X);IIC_DELAY;}
 172:	95 98       	cbi	0x12, 5	; 18
 174:	94 2f       	mov	r25, r20
 176:	9a 95       	dec	r25
 178:	f1 f7       	brne	.-4      	; 0x176 <iicSendChar+0x2a>
--------------------------------------------------------------------*/
void iicSendChar(uint8_t wrDAdr)	
{
	uint8_t I2C_n;
	SDA_OUT();
	for(I2C_n=0;I2C_n<=7;I2C_n++)
 17a:	2f 5f       	subi	r18, 0xFF	; 255
 17c:	28 30       	cpi	r18, 0x08	; 8
 17e:	11 f0       	breq	.+4      	; 0x184 <iicSendChar+0x38>
	{
		if(wrDAdr&0x80) {SDA_SET();}
		else {SDA_CLR();}	
		SCL_SET();
		SCL_CLR();
		wrDAdr<<=1;
 180:	88 0f       	add	r24, r24
 182:	ea cf       	rjmp	.-44     	; 0x158 <iicSendChar+0xc>
  #warning "iic_sim interface undefined."
#endif

#define IIC_DELAY _delay_us(6)//asm("nop")

void SDA_IN()		{cbi(DDR_IIC,SDA_X);IIC_DELAY;}
 184:	8c 98       	cbi	0x11, 4	; 17
 186:	83 2f       	mov	r24, r19
 188:	8a 95       	dec	r24
 18a:	f1 f7       	brne	.-4      	; 0x188 <iicSendChar+0x3c>
void SDA_OUT()		{sbi(DDR_IIC,SDA_X);IIC_DELAY;}  
void SDA_SET()		{sbi(PORT_IIC,SDA_X);IIC_DELAY;}
 18c:	94 9a       	sbi	0x12, 4	; 18
 18e:	83 2f       	mov	r24, r19
 190:	8a 95       	dec	r24
 192:	f1 f7       	brne	.-4      	; 0x190 <iicSendChar+0x44>
void SDA_CLR()		{cbi(PORT_IIC,SDA_X);IIC_DELAY;}
#define SDA_PIN		(gbi(PIN_IIC,SDA_X))

void SCL_IN()		{cbi(DDR_IIC,SCL_X);IIC_DELAY;}
void SCL_OUT()		{sbi(DDR_IIC,SCL_X);IIC_DELAY;}  
void SCL_SET()		{sbi(PORT_IIC,SCL_X);IIC_DELAY;}
 194:	95 9a       	sbi	0x12, 5	; 18
 196:	83 2f       	mov	r24, r19
 198:	8a 95       	dec	r24
 19a:	f1 f7       	brne	.-4      	; 0x198 <iicSendChar+0x4c>
	}
	SDA_IN();
	SDA_SET();
	SCL_SET();
	while(SDA_PIN){};
 19c:	84 99       	sbic	0x10, 4	; 16
 19e:	fe cf       	rjmp	.-4      	; 0x19c <iicSendChar+0x50>
void SCL_CLR()		{cbi(PORT_IIC,SCL_X);IIC_DELAY;}
 1a0:	95 98       	cbi	0x12, 5	; 18
 1a2:	8e e0       	ldi	r24, 0x0E	; 14
 1a4:	8a 95       	dec	r24
 1a6:	f1 f7       	brne	.-4      	; 0x1a4 <iicSendChar+0x58>
	SCL_CLR();
}
 1a8:	08 95       	ret

000001aa <iicGetChar>:
提示说明：
输    入：有act bAct=1;无act bAct=0;
返    回：rdDAdr
--------------------------------------------------------------------*/
uint8_t iicGetChar(uint8_t bAct)
{
 1aa:	58 2f       	mov	r21, r24
  #warning "iic_sim interface undefined."
#endif

#define IIC_DELAY _delay_us(6)//asm("nop")

void SDA_IN()		{cbi(DDR_IIC,SDA_X);IIC_DELAY;}
 1ac:	8c 98       	cbi	0x11, 4	; 17
 1ae:	8e e0       	ldi	r24, 0x0E	; 14
 1b0:	98 2f       	mov	r25, r24
 1b2:	9a 95       	dec	r25
 1b4:	f1 f7       	brne	.-4      	; 0x1b2 <iicGetChar+0x8>
void SDA_OUT()		{sbi(DDR_IIC,SDA_X);IIC_DELAY;}  
void SDA_SET()		{sbi(PORT_IIC,SDA_X);IIC_DELAY;}
 1b6:	94 9a       	sbi	0x12, 4	; 18
 1b8:	8a 95       	dec	r24
 1ba:	f1 f7       	brne	.-4      	; 0x1b8 <iicGetChar+0xe>
 1bc:	90 e0       	ldi	r25, 0x00	; 0
 1be:	20 e0       	ldi	r18, 0x00	; 0
	uint8_t rdDAdr=0;
	SDA_IN();
	SDA_SET();
	for(n=0;n<=7;n++)
	{
	 	rdDAdr<<=1;
 1c0:	4e e0       	ldi	r20, 0x0E	; 14
 1c2:	22 0f       	add	r18, r18
void SDA_CLR()		{cbi(PORT_IIC,SDA_X);IIC_DELAY;}
#define SDA_PIN		(gbi(PIN_IIC,SDA_X))

void SCL_IN()		{cbi(DDR_IIC,SCL_X);IIC_DELAY;}
void SCL_OUT()		{sbi(DDR_IIC,SCL_X);IIC_DELAY;}  
void SCL_SET()		{sbi(PORT_IIC,SCL_X);IIC_DELAY;}
 1c4:	95 9a       	sbi	0x12, 5	; 18
 1c6:	84 2f       	mov	r24, r20
 1c8:	8a 95       	dec	r24
 1ca:	f1 f7       	brne	.-4      	; 0x1c8 <iicGetChar+0x1e>
		SCL_SET();
		if(SDA_PIN)	rdDAdr|=0x01;
 1cc:	84 99       	sbic	0x10, 4	; 16
 1ce:	21 60       	ori	r18, 0x01	; 1
void SCL_CLR()		{cbi(PORT_IIC,SCL_X);IIC_DELAY;}
 1d0:	95 98       	cbi	0x12, 5	; 18
 1d2:	3e e0       	ldi	r19, 0x0E	; 14
 1d4:	84 2f       	mov	r24, r20
 1d6:	8a 95       	dec	r24
 1d8:	f1 f7       	brne	.-4      	; 0x1d6 <iicGetChar+0x2c>
{
	uint8_t n;
	uint8_t rdDAdr=0;
	SDA_IN();
	SDA_SET();
	for(n=0;n<=7;n++)
 1da:	9f 5f       	subi	r25, 0xFF	; 255
 1dc:	98 30       	cpi	r25, 0x08	; 8
 1de:	89 f7       	brne	.-30     	; 0x1c2 <iicGetChar+0x18>
#endif

#define IIC_DELAY _delay_us(6)//asm("nop")

void SDA_IN()		{cbi(DDR_IIC,SDA_X);IIC_DELAY;}
void SDA_OUT()		{sbi(DDR_IIC,SDA_X);IIC_DELAY;}  
 1e0:	8c 9a       	sbi	0x11, 4	; 17
 1e2:	83 2f       	mov	r24, r19
 1e4:	8a 95       	dec	r24
 1e6:	f1 f7       	brne	.-4      	; 0x1e4 <iicGetChar+0x3a>
		if(SDA_PIN)	rdDAdr|=0x01;
		SCL_CLR();
		
	}
	SDA_OUT();
	if(bAct) {SDA_CLR();}
 1e8:	55 23       	and	r21, r21
 1ea:	11 f0       	breq	.+4      	; 0x1f0 <iicGetChar+0x46>
void SDA_SET()		{sbi(PORT_IIC,SDA_X);IIC_DELAY;}
void SDA_CLR()		{cbi(PORT_IIC,SDA_X);IIC_DELAY;}
 1ec:	94 98       	cbi	0x12, 4	; 18
 1ee:	01 c0       	rjmp	.+2      	; 0x1f2 <iicGetChar+0x48>

#define IIC_DELAY _delay_us(6)//asm("nop")

void SDA_IN()		{cbi(DDR_IIC,SDA_X);IIC_DELAY;}
void SDA_OUT()		{sbi(DDR_IIC,SDA_X);IIC_DELAY;}  
void SDA_SET()		{sbi(PORT_IIC,SDA_X);IIC_DELAY;}
 1f0:	94 9a       	sbi	0x12, 4	; 18
 1f2:	83 2f       	mov	r24, r19
 1f4:	8a 95       	dec	r24
 1f6:	f1 f7       	brne	.-4      	; 0x1f4 <iicGetChar+0x4a>
void SDA_CLR()		{cbi(PORT_IIC,SDA_X);IIC_DELAY;}
#define SDA_PIN		(gbi(PIN_IIC,SDA_X))

void SCL_IN()		{cbi(DDR_IIC,SCL_X);IIC_DELAY;}
void SCL_OUT()		{sbi(DDR_IIC,SCL_X);IIC_DELAY;}  
void SCL_SET()		{sbi(PORT_IIC,SCL_X);IIC_DELAY;}
 1f8:	95 9a       	sbi	0x12, 5	; 18
 1fa:	8e e0       	ldi	r24, 0x0E	; 14
 1fc:	98 2f       	mov	r25, r24
 1fe:	9a 95       	dec	r25
 200:	f1 f7       	brne	.-4      	; 0x1fe <iicGetChar+0x54>
void SCL_CLR()		{cbi(PORT_IIC,SCL_X);IIC_DELAY;}
 202:	95 98       	cbi	0x12, 5	; 18
 204:	8a 95       	dec	r24
 206:	f1 f7       	brne	.-4      	; 0x204 <iicGetChar+0x5a>
	else {SDA_SET();}
	SCL_SET();
	SCL_CLR();
	return(rdDAdr);
}
 208:	82 2f       	mov	r24, r18
 20a:	08 95       	ret

0000020c <iicReadBusy>:
提示说明：
输    入：wrDAdr 忙返回1 不忙返回0
返    回：
--------------------------------------------------------------------*/
uint8_t iicReadBusy(uint8_t wrDAdr)	
{
 20c:	1f 93       	push	r17
 20e:	18 2f       	mov	r17, r24
	uint8_t n;
	iicStart();
 210:	0e 94 6c 00 	call	0xd8	; 0xd8 <iicStart>
 214:	90 e0       	ldi	r25, 0x00	; 0
 216:	3e e0       	ldi	r19, 0x0E	; 14
	for(n=0;n<=7;n++)
	{
		if(wrDAdr&0x80) {SDA_SET();}
 218:	17 ff       	sbrs	r17, 7
 21a:	02 c0       	rjmp	.+4      	; 0x220 <iicReadBusy+0x14>

#define IIC_DELAY _delay_us(6)//asm("nop")

void SDA_IN()		{cbi(DDR_IIC,SDA_X);IIC_DELAY;}
void SDA_OUT()		{sbi(DDR_IIC,SDA_X);IIC_DELAY;}  
void SDA_SET()		{sbi(PORT_IIC,SDA_X);IIC_DELAY;}
 21c:	94 9a       	sbi	0x12, 4	; 18
 21e:	01 c0       	rjmp	.+2      	; 0x222 <iicReadBusy+0x16>
void SDA_CLR()		{cbi(PORT_IIC,SDA_X);IIC_DELAY;}
 220:	94 98       	cbi	0x12, 4	; 18
 222:	83 2f       	mov	r24, r19
 224:	8a 95       	dec	r24
 226:	f1 f7       	brne	.-4      	; 0x224 <iicReadBusy+0x18>
#define SDA_PIN		(gbi(PIN_IIC,SDA_X))

void SCL_IN()		{cbi(DDR_IIC,SCL_X);IIC_DELAY;}
void SCL_OUT()		{sbi(DDR_IIC,SCL_X);IIC_DELAY;}  
void SCL_SET()		{sbi(PORT_IIC,SCL_X);IIC_DELAY;}
 228:	95 9a       	sbi	0x12, 5	; 18
 22a:	2e e0       	ldi	r18, 0x0E	; 14
 22c:	83 2f       	mov	r24, r19
 22e:	8a 95       	dec	r24
 230:	f1 f7       	brne	.-4      	; 0x22e <iicReadBusy+0x22>
void SCL_CLR()		{cbi(PORT_IIC,SCL_X);IIC_DELAY;}
 232:	95 98       	cbi	0x12, 5	; 18
 234:	83 2f       	mov	r24, r19
 236:	8a 95       	dec	r24
 238:	f1 f7       	brne	.-4      	; 0x236 <iicReadBusy+0x2a>
--------------------------------------------------------------------*/
uint8_t iicReadBusy(uint8_t wrDAdr)	
{
	uint8_t n;
	iicStart();
	for(n=0;n<=7;n++)
 23a:	9f 5f       	subi	r25, 0xFF	; 255
 23c:	98 30       	cpi	r25, 0x08	; 8
 23e:	11 f0       	breq	.+4      	; 0x244 <iicReadBusy+0x38>
	{
		if(wrDAdr&0x80) {SDA_SET();}
		else {SDA_CLR();}
		SCL_SET();
		SCL_CLR();
		wrDAdr<<=1;
 240:	11 0f       	add	r17, r17
 242:	ea cf       	rjmp	.-44     	; 0x218 <iicReadBusy+0xc>
  #warning "iic_sim interface undefined."
#endif

#define IIC_DELAY _delay_us(6)//asm("nop")

void SDA_IN()		{cbi(DDR_IIC,SDA_X);IIC_DELAY;}
 244:	8c 98       	cbi	0x11, 4	; 17
 246:	82 2f       	mov	r24, r18
 248:	8a 95       	dec	r24
 24a:	f1 f7       	brne	.-4      	; 0x248 <iicReadBusy+0x3c>
void SDA_OUT()		{sbi(DDR_IIC,SDA_X);IIC_DELAY;}  
void SDA_SET()		{sbi(PORT_IIC,SDA_X);IIC_DELAY;}
 24c:	94 9a       	sbi	0x12, 4	; 18
 24e:	82 2f       	mov	r24, r18
 250:	8a 95       	dec	r24
 252:	f1 f7       	brne	.-4      	; 0x250 <iicReadBusy+0x44>
void SDA_CLR()		{cbi(PORT_IIC,SDA_X);IIC_DELAY;}
#define SDA_PIN		(gbi(PIN_IIC,SDA_X))

void SCL_IN()		{cbi(DDR_IIC,SCL_X);IIC_DELAY;}
void SCL_OUT()		{sbi(DDR_IIC,SCL_X);IIC_DELAY;}  
void SCL_SET()		{sbi(PORT_IIC,SCL_X);IIC_DELAY;}
 254:	95 9a       	sbi	0x12, 5	; 18
 256:	82 2f       	mov	r24, r18
 258:	8a 95       	dec	r24
 25a:	f1 f7       	brne	.-4      	; 0x258 <iicReadBusy+0x4c>
	}
	SDA_IN();
	SDA_SET();
	SCL_SET();
	if(SDA_PIN)wrDAdr=1;
 25c:	80 b3       	in	r24, 0x10	; 16
void SCL_CLR()		{cbi(PORT_IIC,SCL_X);IIC_DELAY;}
 25e:	95 98       	cbi	0x12, 5	; 18
 260:	92 2f       	mov	r25, r18
 262:	9a 95       	dec	r25
 264:	f1 f7       	brne	.-4      	; 0x262 <iicReadBusy+0x56>
 266:	90 e0       	ldi	r25, 0x00	; 0
 268:	24 e0       	ldi	r18, 0x04	; 4
 26a:	96 95       	lsr	r25
 26c:	87 95       	ror	r24
 26e:	2a 95       	dec	r18
 270:	e1 f7       	brne	.-8      	; 0x26a <iicReadBusy+0x5e>
	else wrDAdr=0;
	SCL_CLR();	
	return(wrDAdr);
}
 272:	81 70       	andi	r24, 0x01	; 1
 274:	1f 91       	pop	r17
 276:	08 95       	ret

00000278 <iicWByte>:
		 wordAdr: word address 字地址
		 dat: data 数据
返    回：
--------------------------------------------------------------------*/
void iicWByte(uint8_t wrDAdr,uint8_t wordAdr,uint8_t dat)
{
 278:	ff 92       	push	r15
 27a:	0f 93       	push	r16
 27c:	1f 93       	push	r17
 27e:	18 2f       	mov	r17, r24
 280:	06 2f       	mov	r16, r22
 282:	f4 2e       	mov	r15, r20
	iicStart(); 
 284:	0e 94 6c 00 	call	0xd8	; 0xd8 <iicStart>
	iicSendChar(wrDAdr); //发送器件地址
 288:	81 2f       	mov	r24, r17
 28a:	0e 94 a6 00 	call	0x14c	; 0x14c <iicSendChar>
	iicSendChar(wordAdr); //发送字地址
 28e:	80 2f       	mov	r24, r16
 290:	0e 94 a6 00 	call	0x14c	; 0x14c <iicSendChar>
	iicSendChar(dat); //发送数据
 294:	8f 2d       	mov	r24, r15
 296:	0e 94 a6 00 	call	0x14c	; 0x14c <iicSendChar>
	iicStop();
 29a:	0e 94 89 00 	call	0x112	; 0x112 <iicStop>
}
 29e:	1f 91       	pop	r17
 2a0:	0f 91       	pop	r16
 2a2:	ff 90       	pop	r15
 2a4:	08 95       	ret

000002a6 <iicWPage>:
		 wordAdr: word address 字地址
		 *pWrDat: p->write data 写入数据指针
返    回：
--------------------------------------------------------------------*/
void iicWPage(uint8_t wrDAdr,uint8_t wordAdr,uint8_t *pWrDat)
{
 2a6:	0f 93       	push	r16
 2a8:	1f 93       	push	r17
 2aa:	cf 93       	push	r28
 2ac:	df 93       	push	r29
 2ae:	18 2f       	mov	r17, r24
 2b0:	06 2f       	mov	r16, r22
 2b2:	ea 01       	movw	r28, r20
	uint8_t n;
	iicStart();
 2b4:	0e 94 6c 00 	call	0xd8	; 0xd8 <iicStart>
	iicSendChar(wrDAdr); //发送器件地址
 2b8:	81 2f       	mov	r24, r17
 2ba:	0e 94 a6 00 	call	0x14c	; 0x14c <iicSendChar>
	iicSendChar(wordAdr); //发送字地址
 2be:	80 2f       	mov	r24, r16
 2c0:	0e 94 a6 00 	call	0x14c	; 0x14c <iicSendChar>
 2c4:	00 e0       	ldi	r16, 0x00	; 0
 2c6:	10 e0       	ldi	r17, 0x00	; 0
	for(n=0;n<=15;n++) //发送16个数据
		iicSendChar(*(pWrDat+n));
 2c8:	fe 01       	movw	r30, r28
 2ca:	e0 0f       	add	r30, r16
 2cc:	f1 1f       	adc	r31, r17
 2ce:	80 81       	ld	r24, Z
 2d0:	0e 94 a6 00 	call	0x14c	; 0x14c <iicSendChar>
 2d4:	0f 5f       	subi	r16, 0xFF	; 255
 2d6:	1f 4f       	sbci	r17, 0xFF	; 255
{
	uint8_t n;
	iicStart();
	iicSendChar(wrDAdr); //发送器件地址
	iicSendChar(wordAdr); //发送字地址
	for(n=0;n<=15;n++) //发送16个数据
 2d8:	00 31       	cpi	r16, 0x10	; 16
 2da:	11 05       	cpc	r17, r1
 2dc:	a9 f7       	brne	.-22     	; 0x2c8 <iicWPage+0x22>
		iicSendChar(*(pWrDat+n));
	iicStop();
 2de:	0e 94 89 00 	call	0x112	; 0x112 <iicStop>
}
 2e2:	df 91       	pop	r29
 2e4:	cf 91       	pop	r28
 2e6:	1f 91       	pop	r17
 2e8:	0f 91       	pop	r16
 2ea:	08 95       	ret

000002ec <iicRByte>:
输    入：AT24C_wrDAdr: write device-address 写器件地址
		 wordAdr: word address 字地址
返    回：
--------------------------------------------------------------------*/
uint8_t iicRByte(uint8_t wrDAdr,uint8_t wordAdr)
{
 2ec:	0f 93       	push	r16
 2ee:	1f 93       	push	r17
 2f0:	08 2f       	mov	r16, r24
 2f2:	16 2f       	mov	r17, r22
	iicStart();
 2f4:	0e 94 6c 00 	call	0xd8	; 0xd8 <iicStart>
	iicSendChar(wrDAdr); //发送器件地址
 2f8:	80 2f       	mov	r24, r16
 2fa:	0e 94 a6 00 	call	0x14c	; 0x14c <iicSendChar>
	iicSendChar(wordAdr); //发送字地址
 2fe:	81 2f       	mov	r24, r17
 300:	0e 94 a6 00 	call	0x14c	; 0x14c <iicSendChar>
	wrDAdr|=0x01; //强制将地址转换为0b1010xxx1 读使能
	iicStart();
 304:	0e 94 6c 00 	call	0xd8	; 0xd8 <iicStart>
	iicSendChar(wrDAdr); //发送器件地址
 308:	80 2f       	mov	r24, r16
 30a:	81 60       	ori	r24, 0x01	; 1
 30c:	0e 94 a6 00 	call	0x14c	; 0x14c <iicSendChar>
	wrDAdr=iicGetChar(ACT);	
 310:	81 e0       	ldi	r24, 0x01	; 1
 312:	0e 94 d5 00 	call	0x1aa	; 0x1aa <iicGetChar>
 316:	18 2f       	mov	r17, r24
	iicStop();
 318:	0e 94 89 00 	call	0x112	; 0x112 <iicStop>
	return(wrDAdr); //读取数据
}
 31c:	81 2f       	mov	r24, r17
 31e:	1f 91       	pop	r17
 320:	0f 91       	pop	r16
 322:	08 95       	ret

00000324 <iicRPage>:
		 *pRdDat: p->read data 读取数据起始指针
		 num: number 读取数据个数
返    回： 
--------------------------------------------------------------------*/
void iicRPage(uint8_t wrDAdr,uint8_t wordAdr,uint8_t *pRdDat,uint8_t num)
{
 324:	df 92       	push	r13
 326:	ef 92       	push	r14
 328:	ff 92       	push	r15
 32a:	0f 93       	push	r16
 32c:	1f 93       	push	r17
 32e:	cf 93       	push	r28
 330:	df 93       	push	r29
 332:	08 2f       	mov	r16, r24
 334:	16 2f       	mov	r17, r22
 336:	ea 01       	movw	r28, r20
 338:	d2 2e       	mov	r13, r18
	uint8_t stack_num=0;
	iicStart();
 33a:	0e 94 6c 00 	call	0xd8	; 0xd8 <iicStart>
	iicSendChar(wrDAdr); //发送器件地址
 33e:	80 2f       	mov	r24, r16
 340:	0e 94 a6 00 	call	0x14c	; 0x14c <iicSendChar>
	iicSendChar(wordAdr); //发送字地址
 344:	81 2f       	mov	r24, r17
 346:	0e 94 a6 00 	call	0x14c	; 0x14c <iicSendChar>
	wrDAdr|=0x01; //强制将器件地址转换为0b1010xxx1 读使能
	iicStart();
 34a:	0e 94 6c 00 	call	0xd8	; 0xd8 <iicStart>
	iicSendChar(wrDAdr); //发送器件地址
 34e:	80 2f       	mov	r24, r16
 350:	81 60       	ori	r24, 0x01	; 1
 352:	0e 94 a6 00 	call	0x14c	; 0x14c <iicSendChar>
 356:	7e 01       	movw	r14, r28
 358:	1d 2d       	mov	r17, r13
 35a:	06 c0       	rjmp	.+12     	; 0x368 <iicRPage+0x44>
	while(--num) //有ACT的读取num-1个数据
	{
		*(pRdDat+stack_num)=iicGetChar(ACT);
 35c:	81 e0       	ldi	r24, 0x01	; 1
 35e:	0e 94 d5 00 	call	0x1aa	; 0x1aa <iicGetChar>
 362:	f7 01       	movw	r30, r14
 364:	81 93       	st	Z+, r24
 366:	7f 01       	movw	r14, r30
	iicSendChar(wrDAdr); //发送器件地址
	iicSendChar(wordAdr); //发送字地址
	wrDAdr|=0x01; //强制将器件地址转换为0b1010xxx1 读使能
	iicStart();
	iicSendChar(wrDAdr); //发送器件地址
	while(--num) //有ACT的读取num-1个数据
 368:	11 50       	subi	r17, 0x01	; 1
 36a:	c1 f7       	brne	.-16     	; 0x35c <iicRPage+0x38>
	{
		*(pRdDat+stack_num)=iicGetChar(ACT);
		stack_num++;
	}
	*(pRdDat+stack_num)=iicGetChar(nACT); //无ACT的读取第num个数据
 36c:	80 e0       	ldi	r24, 0x00	; 0
 36e:	0e 94 d5 00 	call	0x1aa	; 0x1aa <iicGetChar>
 372:	da 94       	dec	r13
 374:	cd 0d       	add	r28, r13
 376:	d1 1d       	adc	r29, r1
 378:	88 83       	st	Y, r24
	iicStop();
 37a:	0e 94 89 00 	call	0x112	; 0x112 <iicStop>
}
 37e:	df 91       	pop	r29
 380:	cf 91       	pop	r28
 382:	1f 91       	pop	r17
 384:	0f 91       	pop	r16
 386:	ff 90       	pop	r15
 388:	ef 90       	pop	r14
 38a:	df 90       	pop	r13
 38c:	08 95       	ret

0000038e <main>:
#include <util/delay.h>
#include <ws_iicsim_port.h>
#include <ws_at24cxx_port.h>

int main(void)
{
 38e:	ef 92       	push	r14
 390:	ff 92       	push	r15
 392:	1f 93       	push	r17
 394:	cf 93       	push	r28
 396:	df 93       	push	r29
	uint8_t n=0;
	DDRA=0xFF;
 398:	8f ef       	ldi	r24, 0xFF	; 255
 39a:	8a bb       	out	0x1a, r24	; 26
 39c:	c0 e0       	ldi	r28, 0x00	; 0
 39e:	d0 e0       	ldi	r29, 0x00	; 0
    milliseconds can be achieved.
 */
void
_delay_loop_2(uint16_t __count)
{
	__asm__ volatile (
 3a0:	38 eb       	ldi	r19, 0xB8	; 184
 3a2:	e3 2e       	mov	r14, r19
 3a4:	f1 2c       	mov	r15, r1
 3a6:	1c 2f       	mov	r17, r28
	while(1)
	{
		iicWByte(AT24C_WR_ADDR,n,n);
 3a8:	80 ea       	ldi	r24, 0xA0	; 160
 3aa:	6c 2f       	mov	r22, r28
 3ac:	4c 2f       	mov	r20, r28
 3ae:	0e 94 3c 01 	call	0x278	; 0x278 <iicWByte>
		while(iicReadBusy(AT24C_WR_ADDR));
 3b2:	80 ea       	ldi	r24, 0xA0	; 160
 3b4:	0e 94 06 01 	call	0x20c	; 0x20c <iicReadBusy>
 3b8:	88 23       	and	r24, r24
 3ba:	d9 f7       	brne	.-10     	; 0x3b2 <main+0x24>
		PORTA=iicRByte(AT24C_WR_ADDR,n);
 3bc:	80 ea       	ldi	r24, 0xA0	; 160
 3be:	61 2f       	mov	r22, r17
 3c0:	0e 94 76 01 	call	0x2ec	; 0x2ec <iicRByte>
 3c4:	8b bb       	out	0x1b, r24	; 27
		if(n==0xFF)break;
 3c6:	cf 3f       	cpi	r28, 0xFF	; 255
 3c8:	d1 05       	cpc	r29, r1
 3ca:	49 f0       	breq	.+18     	; 0x3de <main+0x50>
 3cc:	80 e1       	ldi	r24, 0x10	; 16
 3ce:	97 e2       	ldi	r25, 0x27	; 39
 3d0:	f7 01       	movw	r30, r14
 3d2:	31 97       	sbiw	r30, 0x01	; 1
 3d4:	f1 f7       	brne	.-4      	; 0x3d2 <main+0x44>
		__ticks = (uint16_t) (__ms * 10.0);
		while(__ticks)
		{
			// wait 1/10 ms
			_delay_loop_2(((F_CPU) / 4e3) / 10);
			__ticks --;
 3d6:	01 97       	sbiw	r24, 0x01	; 1
		__ticks = 1;
	else if (__tmp > 65535)
	{
		//	__ticks = requested delay in 1/10 ms
		__ticks = (uint16_t) (__ms * 10.0);
		while(__ticks)
 3d8:	d9 f7       	brne	.-10     	; 0x3d0 <main+0x42>
 3da:	21 96       	adiw	r28, 0x01	; 1
 3dc:	e4 cf       	rjmp	.-56     	; 0x3a6 <main+0x18>
 3de:	ff cf       	rjmp	.-2      	; 0x3de <main+0x50>

000003e0 <_exit>:
 3e0:	f8 94       	cli

000003e2 <__stop_program>:
 3e2:	ff cf       	rjmp	.-2      	; 0x3e2 <__stop_program>
