
EEPROM_EXAMPLE.elf:     file format elf32-avr

Sections:
Idx Name          Size      VMA       LMA       File off  Algn
  0 .text         000000c8  00000000  00000000  00000054  2**1
                  CONTENTS, ALLOC, LOAD, READONLY, CODE
  1 .debug_aranges 00000020  00000000  00000000  0000011c  2**0
                  CONTENTS, READONLY, DEBUGGING
  2 .debug_pubnames 0000001b  00000000  00000000  0000013c  2**0
                  CONTENTS, READONLY, DEBUGGING
  3 .debug_info   00000101  00000000  00000000  00000157  2**0
                  CONTENTS, READONLY, DEBUGGING
  4 .debug_abbrev 000000b8  00000000  00000000  00000258  2**0
                  CONTENTS, READONLY, DEBUGGING
  5 .debug_line   00000139  00000000  00000000  00000310  2**0
                  CONTENTS, READONLY, DEBUGGING
  6 .debug_frame  00000020  00000000  00000000  0000044c  2**2
                  CONTENTS, READONLY, DEBUGGING
  7 .debug_str    000000c1  00000000  00000000  0000046c  2**0
                  CONTENTS, READONLY, DEBUGGING
  8 .debug_loc    00000018  00000000  00000000  0000052d  2**0
                  CONTENTS, READONLY, DEBUGGING

Disassembly of section .text:

00000000 <__vectors>:
   0:	0c 94 38 00 	jmp	0x70	; 0x70 <__ctors_end>
   4:	0c 94 42 00 	jmp	0x84	; 0x84 <__bad_interrupt>
   8:	0c 94 42 00 	jmp	0x84	; 0x84 <__bad_interrupt>
   c:	0c 94 42 00 	jmp	0x84	; 0x84 <__bad_interrupt>
  10:	0c 94 42 00 	jmp	0x84	; 0x84 <__bad_interrupt>
  14:	0c 94 42 00 	jmp	0x84	; 0x84 <__bad_interrupt>
  18:	0c 94 42 00 	jmp	0x84	; 0x84 <__bad_interrupt>
  1c:	0c 94 42 00 	jmp	0x84	; 0x84 <__bad_interrupt>
  20:	0c 94 42 00 	jmp	0x84	; 0x84 <__bad_interrupt>
  24:	0c 94 42 00 	jmp	0x84	; 0x84 <__bad_interrupt>
  28:	0c 94 42 00 	jmp	0x84	; 0x84 <__bad_interrupt>
  2c:	0c 94 42 00 	jmp	0x84	; 0x84 <__bad_interrupt>
  30:	0c 94 42 00 	jmp	0x84	; 0x84 <__bad_interrupt>
  34:	0c 94 42 00 	jmp	0x84	; 0x84 <__bad_interrupt>
  38:	0c 94 42 00 	jmp	0x84	; 0x84 <__bad_interrupt>
  3c:	0c 94 42 00 	jmp	0x84	; 0x84 <__bad_interrupt>
  40:	0c 94 42 00 	jmp	0x84	; 0x84 <__bad_interrupt>
  44:	0c 94 42 00 	jmp	0x84	; 0x84 <__bad_interrupt>
  48:	0c 94 42 00 	jmp	0x84	; 0x84 <__bad_interrupt>
  4c:	0c 94 42 00 	jmp	0x84	; 0x84 <__bad_interrupt>
  50:	0c 94 42 00 	jmp	0x84	; 0x84 <__bad_interrupt>
  54:	0c 94 42 00 	jmp	0x84	; 0x84 <__bad_interrupt>
  58:	0c 94 42 00 	jmp	0x84	; 0x84 <__bad_interrupt>
  5c:	0c 94 42 00 	jmp	0x84	; 0x84 <__bad_interrupt>
  60:	0c 94 42 00 	jmp	0x84	; 0x84 <__bad_interrupt>
  64:	0c 94 42 00 	jmp	0x84	; 0x84 <__bad_interrupt>
  68:	0c 94 42 00 	jmp	0x84	; 0x84 <__bad_interrupt>
  6c:	0c 94 42 00 	jmp	0x84	; 0x84 <__bad_interrupt>

00000070 <__ctors_end>:
  70:	11 24       	eor	r1, r1
  72:	1f be       	out	0x3f, r1	; 63
  74:	cf ef       	ldi	r28, 0xFF	; 255
  76:	d4 e0       	ldi	r29, 0x04	; 4
  78:	de bf       	out	0x3e, r29	; 62
  7a:	cd bf       	out	0x3d, r28	; 61
  7c:	0e 94 44 00 	call	0x88	; 0x88 <main>
  80:	0c 94 62 00 	jmp	0xc4	; 0xc4 <_exit>

00000084 <__bad_interrupt>:
  84:	0c 94 00 00 	jmp	0	; 0x0 <__vectors>

00000088 <main>:
*/
#include <avr/io.h>
#include <avr/eeprom.h>

int main(void)
{
  88:	80 e0       	ldi	r24, 0x00	; 0
  8a:	90 e0       	ldi	r25, 0x00	; 0
/** \ingroup avr_eeprom
    Write a byte \a __value to EEPROM address \a __p.
 */
static __inline__ void eeprom_write_byte (uint8_t *__p, uint8_t __value)
{
    do {} while (!eeprom_is_ready ());
  8c:	e1 99       	sbic	0x1c, 1	; 28
  8e:	fe cf       	rjmp	.-4      	; 0x8c <main+0x4>
#endif

#if	E2END <= 0xFF
    EEARL = (size_t)__p;
#else
    EEAR = (size_t)__p;
  90:	9f bb       	out	0x1f, r25	; 31
  92:	8e bb       	out	0x1e, r24	; 30
#endif
    EEDR = __value;
  94:	8d bb       	out	0x1d, r24	; 29

    __asm__ __volatile__ (
  96:	0f b6       	in	r0, 0x3f	; 63
  98:	f8 94       	cli
  9a:	e2 9a       	sbi	0x1c, 2	; 28
  9c:	e1 9a       	sbi	0x1c, 1	; 28
  9e:	0f be       	out	0x3f, r0	; 63
	int16_t tmp;
	for(tmp=0;tmp<255;tmp++)
  a0:	01 96       	adiw	r24, 0x01	; 1
  a2:	8f 3f       	cpi	r24, 0xFF	; 255
  a4:	91 05       	cpc	r25, r1
  a6:	91 f7       	brne	.-28     	; 0x8c <main+0x4>
/** \ingroup avr_eeprom
    Write a byte \a __value to EEPROM address \a __p.
 */
static __inline__ void eeprom_write_byte (uint8_t *__p, uint8_t __value)
{
    do {} while (!eeprom_is_ready ());
  a8:	e1 99       	sbic	0x1c, 1	; 28
  aa:	fe cf       	rjmp	.-4      	; 0xa8 <main+0x20>
#endif

#if	E2END <= 0xFF
    EEARL = (size_t)__p;
#else
    EEAR = (size_t)__p;
  ac:	8f ef       	ldi	r24, 0xFF	; 255
  ae:	90 e0       	ldi	r25, 0x00	; 0
  b0:	9f bb       	out	0x1f, r25	; 31
  b2:	8e bb       	out	0x1e, r24	; 30
#endif
    EEDR = __value;
  b4:	8f ef       	ldi	r24, 0xFF	; 255
  b6:	8d bb       	out	0x1d, r24	; 29

    __asm__ __volatile__ (
  b8:	0f b6       	in	r0, 0x3f	; 63
  ba:	f8 94       	cli
  bc:	e2 9a       	sbi	0x1c, 2	; 28
  be:	e1 9a       	sbi	0x1c, 1	; 28
  c0:	0f be       	out	0x3f, r0	; 63
  c2:	ff cf       	rjmp	.-2      	; 0xc2 <main+0x3a>

000000c4 <_exit>:
  c4:	f8 94       	cli

000000c6 <__stop_program>:
  c6:	ff cf       	rjmp	.-2      	; 0xc6 <__stop_program>
